; Function Attrs: mustprogress uwtable
define internal void @_ZN8pybind116class_IN12_GLOBAL__N_16I801B2EJSt10shared_ptrIS2_EEE32dealloc_without_manipulating_gilERNS_6detail16value_and_holderE(ptr noundef nonnull readonly align 8 captures(none) dereferenceable(32) %0) #5 align 2 personality ptr @__gxx_personality_v0 {
  %2 = alloca %"struct.pybind11::error_scope", align 8
  call void @llvm.lifetime.start.p0(i64 24, ptr nonnull %2) #36
  %3 = getelementptr inbounds nuw i8, ptr %2, i64 8
  %4 = getelementptr inbounds nuw i8, ptr %2, i64 16
  call void @PyErr_Fetch(ptr noundef nonnull align 8 dereferenceable(24) %2, ptr noundef nonnull %3, ptr noundef nonnull %4)
  call fastcc void @_ZN8pybind116class_IN12_GLOBAL__N_16I801B2EJSt10shared_ptrIS2_EEE12dealloc_implERNS_6detail16value_and_holderE(ptr noundef nonnull align 8 dereferenceable(32) %0)
  %5 = load ptr, ptr %2, align 8, !tbaa !16
  %6 = load ptr, ptr %3, align 8, !tbaa !19
  %7 = load ptr, ptr %4, align 8, !tbaa !20
  invoke void @PyErr_Restore(ptr noundef %5, ptr noundef %6, ptr noundef %7)
          to label %_ZN8pybind1111error_scopeD2Ev.exit unwind label %8

8:                                                ; preds = %1
  %9 = landingpad { ptr, i32 }
          catch ptr null
  %10 = extractvalue { ptr, i32 } %9, 0
  call void @__clang_call_terminate(ptr %10) #37
  unreachable

_ZN8pybind1111error_scopeD2Ev.exit:               ; preds = %1
  call void @llvm.lifetime.end.p0(i64 24, ptr nonnull %2) #36
  ret void
}